	.file	"test.c"
	.text
	.section	.rodata
.LC0:
	.string	"arg=%d\n"
	.text
	.globl	func
	.type	func, @function
func:
.LFB5:
	.cfi_startproc
	pushq	%rbp
	.cfi_def_cfa_offset 16
	.cfi_offset 6, -16
	movq	%rsp, %rbp
	.cfi_def_cfa_register 6
	subq	$16, %rsp
	movq	%rdi, -8(%rbp)
	movq	-8(%rbp), %rax
	movl	(%rax), %eax
	movl	%eax, %esi
	leaq	.LC0(%rip), %rdi
	movl	$0, %eax
	call	printf@PLT
	nop
	leave
	.cfi_def_cfa 7, 8
	ret
	.cfi_endproc
.LFE5:
	.size	func, .-func
	.section	.rodata
.LC1:
	.string	"res=%d\n"
.LC2:
	.string	"returnValue=%s\n"
	.text
	.globl	main
	.type	main, @function
main:
.LFB6:
	.cfi_startproc
	pushq	%rbp
	.cfi_def_cfa_offset 16
	.cfi_offset 6, -16
	movq	%rsp, %rbp
	.cfi_def_cfa_register 6
	subq	$32, %rsp
	movq	%fs:40, %rax
	movq	%rax, -8(%rbp)
	xorl	%eax, %eax
	movl	$10, -32(%rbp)
	leaq	-32(%rbp), %rdx
	leaq	-24(%rbp), %rax
	movq	%rdx, %rcx
	leaq	func(%rip), %rdx
	movl	$0, %esi
	movq	%rax, %rdi
	call	pthread_create@PLT
	movl	%eax, -28(%rbp)
	movl	-28(%rbp), %eax
	movl	%eax, %esi
	leaq	.LC1(%rip), %rdi
	movl	$0, %eax
	call	printf@PLT
	movq	-24(%rbp), %rax
	leaq	-16(%rbp), %rdx
	movq	%rdx, %rsi
	movq	%rax, %rdi
	call	pthread_join@PLT
	movl	%eax, -28(%rbp)
	movq	-16(%rbp), %rax
	movq	%rax, %rsi
	leaq	.LC2(%rip), %rdi
	movl	$0, %eax
	call	printf@PLT
	movl	$0, %eax
	movq	-8(%rbp), %rcx
	xorq	%fs:40, %rcx
	je	.L4
	call	__stack_chk_fail@PLT
.L4:
	leave
	.cfi_def_cfa 7, 8
	ret
	.cfi_endproc
.LFE6:
	.size	main, .-main
	.ident	"GCC: (Ubuntu 7.3.0-16ubuntu3) 7.3.0"
	.section	.note.GNU-stack,"",@progbits
